; Function Attrs: mustprogress nounwind uwtable
define hidden void @_ZN14GenerateOopMap23report_monitor_mismatchEPKc(ptr nocapture noundef nonnull readonly align 8 dereferenceable(176) %0, ptr noundef %1) local_unnamed_addr #0 align 2 {
  %3 = alloca %class.LogStream, align 8
  %4 = tail call align 8 ptr @llvm.threadlocal.address.p0(ptr align 8 @_ZN6Thread12_thr_currentE)
  %5 = load ptr, ptr %4, align 8
  %6 = getelementptr inbounds i8, ptr %5, i64 800
  %7 = load ptr, ptr %6, align 8
  %8 = getelementptr inbounds i8, ptr %7, i64 24
  %9 = load ptr, ptr %8, align 8
  %10 = getelementptr inbounds i8, ptr %7, i64 32
  %11 = load ptr, ptr %10, align 8
  %12 = getelementptr inbounds i8, ptr %7, i64 40
  %13 = load ptr, ptr %12, align 8
  %14 = getelementptr inbounds i8, ptr %7, i64 8
  %15 = load i64, ptr %14, align 8
  call void @_ZN12outputStreamC2Eb(ptr noundef nonnull align 8 dereferenceable(56) %3, i1 noundef zeroext false) #18
  store ptr getelementptr inbounds inrange(-16, 40) (i8, ptr @_ZTV17LogStreamImplBase, i64 16), ptr %3, align 8
  %16 = getelementptr inbounds i8, ptr %3, i64 56
  call void @_ZN17LogStreamImplBase10LineBufferC1Ev(ptr noundef nonnull align 8 dereferenceable(88) %16) #18
  %17 = getelementptr inbounds i8, ptr %3, i64 144
  store i32 3, ptr %17, align 8
  %.sroa.21.0..sroa_idx.i.i = getelementptr inbounds i8, ptr %3, i64 152
  store ptr @_ZN16LogTagSetMappingILN6LogTag4typeE91ELS1_0ELS1_0ELS1_0ELS1_0ELS1_0EE7_tagsetE, ptr %.sroa.21.0..sroa_idx.i.i, align 8
  store ptr getelementptr inbounds inrange(-16, 40) (i8, ptr @_ZTV9LogStream, i64 16), ptr %3, align 8
  call void (ptr, ptr, ...) @_ZN12outputStream5printEPKcz(ptr noundef nonnull align 8 dereferenceable(56) %3, ptr noundef nonnull @.str.43) #18
  %18 = getelementptr inbounds i8, ptr %0, i64 8
  %19 = load ptr, ptr %18, align 8
  call void @_ZNK6Method16print_short_nameEP12outputStream(ptr noundef nonnull align 8 dereferenceable(88) %19, ptr noundef nonnull %3) #18
  call void (ptr, ptr, ...) @_ZN12outputStream8print_crEPKcz(ptr noundef nonnull align 8 dereferenceable(56) %3, ptr noundef nonnull @.str.44, ptr noundef %1) #18
  call void @_ZN13LogStreamImplI15LogTargetHandleED2Ev(ptr noundef nonnull align 8 dereferenceable(160) %3) #18
  %20 = load ptr, ptr %9, align 8
  %.not.i.i.i.i = icmp eq ptr %20, null
  br i1 %.not.i.i.i.i, label %22, label %21

21:                                               ; preds = %2
  call void @_ZN5Arena17set_size_in_bytesEm(ptr noundef nonnull align 8 dereferenceable(48) %7, i64 noundef %15) #18
  call void @_ZN5Chunk9next_chopEPS_(ptr noundef nonnull %9) #18
  br label %22

22:                                               ; preds = %21, %2
  %23 = load ptr, ptr %10, align 8
  %.not8.i.i.i.i = icmp eq ptr %23, %11
  br i1 %.not8.i.i.i.i, label %_ZN12ResourceMarkD2Ev.exit, label %24

24:                                               ; preds = %22
  store ptr %9, ptr %8, align 8
  store ptr %11, ptr %10, align 8
  store ptr %13, ptr %12, align 8
  br label %_ZN12ResourceMarkD2Ev.exit

_ZN12ResourceMarkD2Ev.exit:                       ; preds = %22, %24
  ret void
}